target datalayout = "e-m:e-p270:32:32-p271:32:32-p272:64:64-i64:64-i128:128-f80:128-n8:16:32:64-S128"
target triple = "x86_64-pc-linux-gnu"

%struct.ComplexMatrixN = type { i32, ptr, ptr }
%struct.Qureg = type { i32, i32, i32, i64, i64, i32, i32, %struct.ComplexArray, %struct.ComplexArray, %struct.ComplexArray, ptr, ptr, ptr, ptr, ptr, ptr }
%struct.ComplexArray = type { ptr, ptr }

; Function Attrs: nounwind uwtable
define void @validateMultiQubitMatrixFitsInNode(ptr noundef byval(%struct.Qureg) align 8 %0, i32 noundef %1, ptr noundef %2) #0 {
  %4 = alloca i32, align 4
  %5 = alloca ptr, align 8
  store i32 %1, ptr %4, align 4, !tbaa !9
  store ptr %2, ptr %5, align 8, !tbaa !4
  %6 = getelementptr inbounds nuw %struct.Qureg, ptr %0, i32 0, i32 3
  %7 = load i64, ptr %6, align 8, !tbaa !46
  %8 = load i32, ptr %4, align 4, !tbaa !9
  %9 = zext i32 %8 to i64
  %10 = shl i64 1, %9
  %11 = icmp sge i64 %7, %10
  %12 = zext i1 %11 to i32
  %13 = load ptr, ptr %5, align 8, !tbaa !4
  call void @QuESTAssert(i32 noundef %12, i32 noundef 46, ptr noundef %13)
  ret void
}

; Function Attrs: nounwind uwtable
define void @validateMatrixInit(ptr noundef byval(%struct.ComplexMatrixN) align 8 %0, ptr noundef %1) #0 {
  %3 = alloca ptr, align 8
  store ptr %1, ptr %3, align 8, !tbaa !4
  %4 = getelementptr inbounds nuw %struct.ComplexMatrixN, ptr %0, i32 0, i32 1
  %5 = load ptr, ptr %4, align 8, !tbaa !20
  %6 = icmp ne ptr %5, null
  br i1 %6, label %7, label %11

7:                                                ; preds = %2
  %8 = getelementptr inbounds nuw %struct.ComplexMatrixN, ptr %0, i32 0, i32 2
  %9 = load ptr, ptr %8, align 8, !tbaa !23
  %10 = icmp ne ptr %9, null
  br label %11

11:                                               ; preds = %7, %2
  %12 = phi i1 [ false, %2 ], [ %10, %7 ]
  %13 = zext i1 %12 to i32
  %14 = load ptr, ptr %3, align 8, !tbaa !4
  call void @QuESTAssert(i32 noundef %13, i32 noundef 48, ptr noundef %14)
  ret void
}

; Function Attrs: nounwind uwtable
define void @QuESTAssert(i32 noundef %0, i32 noundef %1, ptr noundef %2) #0 {
  %4 = alloca i32, align 4
  %5 = alloca i32, align 4
  %6 = alloca ptr, align 8
  store i32 %0, ptr %4, align 4, !tbaa !9
  store i32 %1, ptr %5, align 4, !tbaa !9
  store ptr %2, ptr %6, align 8, !tbaa !4
  %7 = load i32, ptr %4, align 4, !tbaa !9
  %8 = icmp ne i32 %7, 0
  br i1 %8, label %15, label %9

9:                                                ; preds = %3
  %10 = load i32, ptr %5, align 4, !tbaa !9
  %11 = zext i32 %10 to i64
  %12 = getelementptr inbounds nuw [92 x ptr], ptr @errorMessages, i64 0, i64 %11
  %13 = load ptr, ptr %12, align 8, !tbaa !4
  %14 = load ptr, ptr %6, align 8, !tbaa !4
  call void @invalidQuESTInputError(ptr noundef %13, ptr noundef %14)
  br label %15

15:                                               ; preds = %9, %3
  ret void
}

; Function Attrs: nounwind uwtable
define i32 @isMatrixNUnitary(ptr noundef byval(%struct.ComplexMatrixN) align 8 %0) #0 {
  %2 = alloca i32, align 4
  %3 = alloca i32, align 4
  %4 = alloca double, align 8
  %5 = alloca double, align 8
  %6 = alloca double, align 8
  %7 = alloca i32, align 4
  %8 = alloca i32, align 4
  %9 = alloca i32, align 4
  %10 = alloca i32, align 4
  %11 = alloca double, align 8
  %12 = alloca double, align 8
  call void @llvm.lifetime.start.p0(i64 4, ptr %3) #7
  %13 = getelementptr inbounds nuw %struct.ComplexMatrixN, ptr %0, i32 0, i32 0
  %14 = load i32, ptr %13, align 8, !tbaa !16
  %15 = shl i32 1, %14
  store i32 %15, ptr %3, align 4, !tbaa !9
  call void @llvm.lifetime.start.p0(i64 8, ptr %4) #7
  store double 1.000000e-26, ptr %4, align 8, !tbaa !15
  call void @llvm.lifetime.start.p0(i64 8, ptr %5) #7
  call void @llvm.lifetime.start.p0(i64 8, ptr %6) #7
  call void @llvm.lifetime.start.p0(i64 4, ptr %7) #7
  store i32 0, ptr %7, align 4, !tbaa !9
  br label %16

16:                                               ; preds = %154, %1
  %17 = load i32, ptr %7, align 4, !tbaa !9
  %18 = load i32, ptr %3, align 4, !tbaa !9
  %19 = icmp slt i32 %17, %18
  br i1 %19, label %21, label %20

20:                                               ; preds = %16
  store i32 2, ptr %8, align 4
  br label %157

21:                                               ; preds = %16
  call void @llvm.lifetime.start.p0(i64 4, ptr %9) #7
  store i32 0, ptr %9, align 4, !tbaa !9
  br label %22

22:                                               ; preds = %148, %21
  %23 = load i32, ptr %9, align 4, !tbaa !9
  %24 = load i32, ptr %3, align 4, !tbaa !9
  %25 = icmp slt i32 %23, %24
  br i1 %25, label %27, label %26

26:                                               ; preds = %22
  store i32 5, ptr %8, align 4
  br label %151

27:                                               ; preds = %22
  store double 0.000000e+00, ptr %5, align 8, !tbaa !15
  store double 0.000000e+00, ptr %6, align 8, !tbaa !15
  call void @llvm.lifetime.start.p0(i64 4, ptr %10) #7
  store i32 0, ptr %10, align 4, !tbaa !9
  br label %28

28:                                               ; preds = %123, %27
  %29 = load i32, ptr %10, align 4, !tbaa !9
  %30 = load i32, ptr %3, align 4, !tbaa !9
  %31 = icmp slt i32 %29, %30
  br i1 %31, label %33, label %32

32:                                               ; preds = %28
  store i32 8, ptr %8, align 4
  call void @llvm.lifetime.end.p0(i64 4, ptr %10) #7
  br label %126

33:                                               ; preds = %28
  %34 = getelementptr inbounds nuw %struct.ComplexMatrixN, ptr %0, i32 0, i32 1
  %35 = load ptr, ptr %34, align 8, !tbaa !20
  %36 = load i32, ptr %7, align 4, !tbaa !9
  %37 = sext i32 %36 to i64
  %38 = getelementptr inbounds ptr, ptr %35, i64 %37
  %39 = load ptr, ptr %38, align 8, !tbaa !21
  %40 = load i32, ptr %10, align 4, !tbaa !9
  %41 = sext i32 %40 to i64
  %42 = getelementptr inbounds double, ptr %39, i64 %41
  %43 = load double, ptr %42, align 8, !tbaa !15
  %44 = getelementptr inbounds nuw %struct.ComplexMatrixN, ptr %0, i32 0, i32 1
  %45 = load ptr, ptr %44, align 8, !tbaa !20
  %46 = load i32, ptr %9, align 4, !tbaa !9
  %47 = sext i32 %46 to i64
  %48 = getelementptr inbounds ptr, ptr %45, i64 %47
  %49 = load ptr, ptr %48, align 8, !tbaa !21
  %50 = load i32, ptr %10, align 4, !tbaa !9
  %51 = sext i32 %50 to i64
  %52 = getelementptr inbounds double, ptr %49, i64 %51
  %53 = load double, ptr %52, align 8, !tbaa !15
  %54 = getelementptr inbounds nuw %struct.ComplexMatrixN, ptr %0, i32 0, i32 2
  %55 = load ptr, ptr %54, align 8, !tbaa !23
  %56 = load i32, ptr %7, align 4, !tbaa !9
  %57 = sext i32 %56 to i64
  %58 = getelementptr inbounds ptr, ptr %55, i64 %57
  %59 = load ptr, ptr %58, align 8, !tbaa !21
  %60 = load i32, ptr %10, align 4, !tbaa !9
  %61 = sext i32 %60 to i64
  %62 = getelementptr inbounds double, ptr %59, i64 %61
  %63 = load double, ptr %62, align 8, !tbaa !15
  %64 = getelementptr inbounds nuw %struct.ComplexMatrixN, ptr %0, i32 0, i32 2
  %65 = load ptr, ptr %64, align 8, !tbaa !23
  %66 = load i32, ptr %9, align 4, !tbaa !9
  %67 = sext i32 %66 to i64
  %68 = getelementptr inbounds ptr, ptr %65, i64 %67
  %69 = load ptr, ptr %68, align 8, !tbaa !21
  %70 = load i32, ptr %10, align 4, !tbaa !9
  %71 = sext i32 %70 to i64
  %72 = getelementptr inbounds double, ptr %69, i64 %71
  %73 = load double, ptr %72, align 8, !tbaa !15
  %74 = fmul double %63, %73
  %75 = call double @llvm.fmuladd.f64(double %43, double %53, double %74)
  %76 = load double, ptr %5, align 8, !tbaa !15
  %77 = fadd double %76, %75
  store double %77, ptr %5, align 8, !tbaa !15
  %78 = getelementptr inbounds nuw %struct.ComplexMatrixN, ptr %0, i32 0, i32 2
  %79 = load ptr, ptr %78, align 8, !tbaa !23
  %80 = load i32, ptr %7, align 4, !tbaa !9
  %81 = sext i32 %80 to i64
  %82 = getelementptr inbounds ptr, ptr %79, i64 %81
  %83 = load ptr, ptr %82, align 8, !tbaa !21
  %84 = load i32, ptr %10, align 4, !tbaa !9
  %85 = sext i32 %84 to i64
  %86 = getelementptr inbounds double, ptr %83, i64 %85
  %87 = load double, ptr %86, align 8, !tbaa !15
  %88 = getelementptr inbounds nuw %struct.ComplexMatrixN, ptr %0, i32 0, i32 1
  %89 = load ptr, ptr %88, align 8, !tbaa !20
  %90 = load i32, ptr %9, align 4, !tbaa !9
  %91 = sext i32 %90 to i64
  %92 = getelementptr inbounds ptr, ptr %89, i64 %91
  %93 = load ptr, ptr %92, align 8, !tbaa !21
  %94 = load i32, ptr %10, align 4, !tbaa !9
  %95 = sext i32 %94 to i64
  %96 = getelementptr inbounds double, ptr %93, i64 %95
  %97 = load double, ptr %96, align 8, !tbaa !15
  %98 = getelementptr inbounds nuw %struct.ComplexMatrixN, ptr %0, i32 0, i32 1
  %99 = load ptr, ptr %98, align 8, !tbaa !20
  %100 = load i32, ptr %7, align 4, !tbaa !9
  %101 = sext i32 %100 to i64
  %102 = getelementptr inbounds ptr, ptr %99, i64 %101
  %103 = load ptr, ptr %102, align 8, !tbaa !21
  %104 = load i32, ptr %10, align 4, !tbaa !9
  %105 = sext i32 %104 to i64
  %106 = getelementptr inbounds double, ptr %103, i64 %105
  %107 = load double, ptr %106, align 8, !tbaa !15
  %108 = getelementptr inbounds nuw %struct.ComplexMatrixN, ptr %0, i32 0, i32 2
  %109 = load ptr, ptr %108, align 8, !tbaa !23
  %110 = load i32, ptr %9, align 4, !tbaa !9
  %111 = sext i32 %110 to i64
  %112 = getelementptr inbounds ptr, ptr %109, i64 %111
  %113 = load ptr, ptr %112, align 8, !tbaa !21
  %114 = load i32, ptr %10, align 4, !tbaa !9
  %115 = sext i32 %114 to i64
  %116 = getelementptr inbounds double, ptr %113, i64 %115
  %117 = load double, ptr %116, align 8, !tbaa !15
  %118 = fmul double %107, %117
  %119 = fneg double %118
  %120 = call double @llvm.fmuladd.f64(double %87, double %97, double %119)
  %121 = load double, ptr %6, align 8, !tbaa !15
  %122 = fadd double %121, %120
  store double %122, ptr %6, align 8, !tbaa !15
  br label %123

123:                                              ; preds = %33
  %124 = load i32, ptr %10, align 4, !tbaa !9
  %125 = add nsw i32 %124, 1
  store i32 %125, ptr %10, align 4, !tbaa !9
  br label %28

126:                                              ; preds = %32
  call void @llvm.lifetime.start.p0(i64 8, ptr %11) #7
  %127 = load double, ptr %5, align 8, !tbaa !15
  %128 = load i32, ptr %7, align 4, !tbaa !9
  %129 = load i32, ptr %9, align 4, !tbaa !9
  %130 = icmp eq i32 %128, %129
  %131 = zext i1 %130 to i32
  %132 = sitofp i32 %131 to double
  %133 = fsub double %127, %132
  store double %133, ptr %11, align 8, !tbaa !15
  call void @llvm.lifetime.start.p0(i64 8, ptr %12) #7
  %134 = load double, ptr %6, align 8, !tbaa !15
  %135 = load double, ptr %6, align 8, !tbaa !15
  %136 = load double, ptr %11, align 8, !tbaa !15
  %137 = load double, ptr %11, align 8, !tbaa !15
  %138 = fmul double %136, %137
  %139 = call double @llvm.fmuladd.f64(double %134, double %135, double %138)
  store double %139, ptr %12, align 8, !tbaa !15
  %140 = load double, ptr %12, align 8, !tbaa !15
  %141 = load double, ptr %4, align 8, !tbaa !15
  %142 = fcmp ogt double %140, %141
  br i1 %142, label %143, label %144

143:                                              ; preds = %126
  store i32 0, ptr %2, align 4
  store i32 1, ptr %8, align 4
  br label %145

144:                                              ; preds = %126
  store i32 0, ptr %8, align 4
  br label %145

145:                                              ; preds = %144, %143
  call void @llvm.lifetime.end.p0(i64 8, ptr %12) #7
  call void @llvm.lifetime.end.p0(i64 8, ptr %11) #7
  %146 = load i32, ptr %8, align 4
  switch i32 %146, label %151 [
    i32 0, label %147
  ]

147:                                              ; preds = %145
  br label %148

148:                                              ; preds = %147
  %149 = load i32, ptr %9, align 4, !tbaa !9
  %150 = add nsw i32 %149, 1
  store i32 %150, ptr %9, align 4, !tbaa !9
  br label %22

151:                                              ; preds = %145, %26
  call void @llvm.lifetime.end.p0(i64 4, ptr %9) #7
  %152 = load i32, ptr %8, align 4
  switch i32 %152, label %157 [
    i32 5, label %153
  ]

153:                                              ; preds = %151
  br label %154

154:                                              ; preds = %153
  %155 = load i32, ptr %7, align 4, !tbaa !9
  %156 = add nsw i32 %155, 1
  store i32 %156, ptr %7, align 4, !tbaa !9
  br label %16

157:                                              ; preds = %151, %20
  call void @llvm.lifetime.end.p0(i64 4, ptr %7) #7
  %158 = load i32, ptr %8, align 4
  switch i32 %158, label %160 [
    i32 2, label %159
  ]

159:                                              ; preds = %157
  store i32 1, ptr %2, align 4
  store i32 1, ptr %8, align 4
  br label %160

160:                                              ; preds = %159, %157
  call void @llvm.lifetime.end.p0(i64 8, ptr %6) #7
  call void @llvm.lifetime.end.p0(i64 8, ptr %5) #7
  call void @llvm.lifetime.end.p0(i64 8, ptr %4) #7
  call void @llvm.lifetime.end.p0(i64 4, ptr %3) #7
  %161 = load i32, ptr %2, align 4
  ret i32 %161
}

; Function Attrs: nounwind uwtable
define void @validateMultiQubitMatrix(ptr noundef byval(%struct.Qureg) align 8 %0, ptr noundef byval(%struct.ComplexMatrixN) align 8 %1, i32 noundef %2, ptr noundef %3) #0 {
  %5 = alloca i32, align 4
  %6 = alloca ptr, align 8
  store i32 %2, ptr %5, align 4, !tbaa !9
  store ptr %3, ptr %6, align 8, !tbaa !4
  %7 = load ptr, ptr %6, align 8, !tbaa !4
  call void @validateMatrixInit(ptr noundef byval(%struct.ComplexMatrixN) align 8 %1, ptr noundef %7)
  %8 = load i32, ptr %5, align 4, !tbaa !9
  %9 = load ptr, ptr %6, align 8, !tbaa !4
  call void @validateMultiQubitMatrixFitsInNode(ptr noundef byval(%struct.Qureg) align 8 %0, i32 noundef %8, ptr noundef %9)
  %10 = load i32, ptr %5, align 4, !tbaa !9
  %11 = getelementptr inbounds nuw %struct.ComplexMatrixN, ptr %1, i32 0, i32 0
  %12 = load i32, ptr %11, align 8, !tbaa !16
  %13 = icmp eq i32 %10, %12
  %14 = zext i1 %13 to i32
  %15 = load ptr, ptr %6, align 8, !tbaa !4
  call void @QuESTAssert(i32 noundef %14, i32 noundef 47, ptr noundef %15)
  ret void
}

; Function Attrs: nounwind uwtable
define void @validateMultiQubitUnitaryMatrix(ptr noundef byval(%struct.Qureg) align 8 %0, ptr noundef byval(%struct.ComplexMatrixN) align 8 %1, i32 noundef %2, ptr noundef %3) #0 {
  %5 = alloca i32, align 4
  %6 = alloca ptr, align 8
  store i32 %2, ptr %5, align 4, !tbaa !9
  store ptr %3, ptr %6, align 8, !tbaa !4
  %7 = load i32, ptr %5, align 4, !tbaa !9
  %8 = load ptr, ptr %6, align 8, !tbaa !4
  call void @validateMultiQubitMatrix(ptr noundef byval(%struct.Qureg) align 8 %0, ptr noundef byval(%struct.ComplexMatrixN) align 8 %1, i32 noundef %7, ptr noundef %8)
  %9 = call i32 @isMatrixNUnitary(ptr noundef byval(%struct.ComplexMatrixN) align 8 %1)
  %10 = load ptr, ptr %6, align 8, !tbaa !4
  call void @QuESTAssert(i32 noundef %9, i32 noundef 22, ptr noundef %10)
  ret void
}