; Function Attrs: nounwind uwtable
define void @validateMultiQubitUnitaryMatrix(ptr noundef readonly byval(%struct.Qureg) align 8 captures(none) %0, ptr noundef readonly byval(%struct.ComplexMatrixN) align 8 captures(none) %1, i32 noundef %2, ptr noundef %3) local_unnamed_addr #3 {
  %.sroa.03.0.copyload = load i32, ptr %1, align 8
  %.sroa.45.0..sroa_idx = getelementptr inbounds nuw i8, ptr %1, i64 8
  %.sroa.45.0.copyload = load ptr, ptr %.sroa.45.0..sroa_idx, align 8
  %.sroa.5.0..sroa_idx = getelementptr inbounds nuw i8, ptr %1, i64 16
  %.sroa.5.0.copyload = load ptr, ptr %.sroa.5.0..sroa_idx, align 8
  %.sroa.3.0..sroa_idx = getelementptr inbounds nuw i8, ptr %0, i64 16
  %.sroa.3.0.copyload = load i64, ptr %.sroa.3.0..sroa_idx, align 8
  %5 = icmp eq ptr %.sroa.45.0.copyload, null
  %6 = icmp eq ptr %.sroa.5.0.copyload, null
  %.not2.i.i = select i1 %5, i1 true, i1 %6
  br i1 %.not2.i.i, label %7, label %validateMatrixInit.exit.i

7:                                                ; preds = %4
  tail call void @invalidQuESTInputError(ptr noundef nonnull @.str.50, ptr noundef %3)
  br label %validateMatrixInit.exit.i

validateMatrixInit.exit.i:                        ; preds = %7, %4
  %8 = zext nneg i32 %2 to i64
  %9 = shl nuw i64 1, %8
  %.not.i.i = icmp slt i64 %.sroa.3.0.copyload, %9
  br i1 %.not.i.i, label %10, label %validateMultiQubitMatrixFitsInNode.exit.i

10:                                               ; preds = %validateMatrixInit.exit.i
  tail call void @invalidQuESTInputError(ptr noundef nonnull @.str.48, ptr noundef %3)
  br label %validateMultiQubitMatrixFitsInNode.exit.i

validateMultiQubitMatrixFitsInNode.exit.i:        ; preds = %10, %validateMatrixInit.exit.i
  %.not.i = icmp eq i32 %2, %.sroa.03.0.copyload
  br i1 %.not.i, label %validateMultiQubitMatrix.exit, label %11

11:                                               ; preds = %validateMultiQubitMatrixFitsInNode.exit.i
  tail call void @invalidQuESTInputError(ptr noundef nonnull @.str.49, ptr noundef %3)
  br label %validateMultiQubitMatrix.exit

validateMultiQubitMatrix.exit:                    ; preds = %validateMultiQubitMatrixFitsInNode.exit.i, %11
  %.not5061.i = icmp eq i32 %.sroa.03.0.copyload, 31
  br i1 %.not5061.i, label %QuESTAssert.exit, label %.preheader51.lr.ph.i

.preheader51.lr.ph.i:                             ; preds = %validateMultiQubitMatrix.exit
  %12 = shl nuw nsw i32 1, %.sroa.03.0.copyload
  %wide.trip.count78.i = zext nneg i32 %12 to i64
  br label %.preheader51.us.i

.preheader51.us.i:                                ; preds = %..critedge_crit_edge.split.us.us.i, %.preheader51.lr.ph.i
  %indvars.iv75.i = phi i64 [ %indvars.iv.next76.i, %..critedge_crit_edge.split.us.us.i ], [ 0, %.preheader51.lr.ph.i ]
  %13 = getelementptr inbounds nuw ptr, ptr %.sroa.45.0.copyload, i64 %indvars.iv75.i
  %14 = getelementptr inbounds nuw ptr, ptr %.sroa.5.0.copyload, i64 %indvars.iv75.i
  %15 = load ptr, ptr %13, align 8, !tbaa !16
  %16 = load ptr, ptr %14, align 8, !tbaa !16
  br label %.preheader.us.us.i

.preheader.us.us.i:                               ; preds = %37, %.preheader51.us.i
  %indvars.iv70.i = phi i64 [ %indvars.iv.next71.i, %37 ], [ 0, %.preheader51.us.i ]
  %17 = getelementptr inbounds nuw ptr, ptr %.sroa.45.0.copyload, i64 %indvars.iv70.i
  %18 = load ptr, ptr %17, align 8, !tbaa !16
  %19 = getelementptr inbounds nuw ptr, ptr %.sroa.5.0.copyload, i64 %indvars.iv70.i
  %20 = load ptr, ptr %19, align 8, !tbaa !16
  br label %21

21:                                               ; preds = %21, %.preheader.us.us.i
  %indvars.iv.i = phi i64 [ %indvars.iv.next.i, %21 ], [ 0, %.preheader.us.us.i ]
  %.04157.us.us.i = phi double [ %32, %21 ], [ 0.000000e+00, %.preheader.us.us.i ]
  %.04855.us.us.i = phi double [ %36, %21 ], [ 0.000000e+00, %.preheader.us.us.i ]
  %22 = getelementptr inbounds nuw double, ptr %15, i64 %indvars.iv.i
  %23 = load double, ptr %22, align 8, !tbaa !9
  %24 = getelementptr inbounds nuw double, ptr %18, i64 %indvars.iv.i
  %25 = load double, ptr %24, align 8, !tbaa !9
  %26 = getelementptr inbounds nuw double, ptr %16, i64 %indvars.iv.i
  %27 = load double, ptr %26, align 8, !tbaa !9
  %28 = getelementptr inbounds nuw double, ptr %20, i64 %indvars.iv.i
  %29 = load double, ptr %28, align 8, !tbaa !9
  %30 = fmul double %27, %29
  %31 = tail call double @llvm.fmuladd.f64(double %23, double %25, double %30)
  %32 = fadd double %.04157.us.us.i, %31
  %33 = fneg double %29
  %34 = fmul double %23, %33
  %35 = tail call double @llvm.fmuladd.f64(double %27, double %25, double %34)
  %36 = fadd double %.04855.us.us.i, %35
  %indvars.iv.next.i = add nuw nsw i64 %indvars.iv.i, 1
  %exitcond.not.i = icmp eq i64 %indvars.iv.next.i, %wide.trip.count78.i
  br i1 %exitcond.not.i, label %._crit_edge.us.us.i, label %21

37:                                               ; preds = %._crit_edge.us.us.i
  %indvars.iv.next71.i = add nuw nsw i64 %indvars.iv70.i, 1
  %exitcond74.not.i = icmp eq i64 %indvars.iv.next71.i, %wide.trip.count78.i
  br i1 %exitcond74.not.i, label %..critedge_crit_edge.split.us.us.i, label %.preheader.us.us.i

._crit_edge.us.us.i:                              ; preds = %21
  %38 = icmp eq i64 %indvars.iv75.i, %indvars.iv70.i
  %39 = uitofp i1 %38 to double
  %40 = fsub double %32, %39
  %41 = fmul double %40, %40
  %42 = tail call double @llvm.fmuladd.f64(double %36, double %36, double %41)
  %43 = fcmp ule double %42, 1.000000e-26
  br i1 %43, label %37, label %isMatrixNUnitary.exit

..critedge_crit_edge.split.us.us.i:               ; preds = %37
  %indvars.iv.next76.i = add nuw nsw i64 %indvars.iv75.i, 1
  %exitcond79.not.i = icmp eq i64 %indvars.iv.next76.i, %wide.trip.count78.i
  br i1 %exitcond79.not.i, label %QuESTAssert.exit, label %.preheader51.us.i

isMatrixNUnitary.exit:                            ; preds = %._crit_edge.us.us.i
  tail call void @invalidQuESTInputError(ptr noundef nonnull @.str.24, ptr noundef %3)
  br label %QuESTAssert.exit

QuESTAssert.exit:                                 ; preds = %..critedge_crit_edge.split.us.us.i, %validateMultiQubitMatrix.exit, %isMatrixNUnitary.exit
  ret void
}